; Function Attrs: nounwind uwtable
define internal fastcc i32 @vforkChild(ptr noundef %0) unnamed_addr #0 {
  %2 = alloca i32, align 4
  %3 = call i32 @vfork() #17
  store volatile i32 %3, ptr %2, align 4
  %.0..0..0..0. = load volatile i32, ptr %2, align 4
  %4 = icmp eq i32 %.0..0..0..0., 0
  br i1 %4, label %5, label %7

5:                                                ; preds = %1
  %6 = call i32 @childProcess(ptr noundef %0) #13
  br label %7

7:                                                ; preds = %5, %1
  %.0..0..0..0.1 = load volatile i32, ptr %2, align 4
  ret i32 %.0..0..0..0.1
}